target datalayout = "e-m:e-p270:32:32-p271:32:32-p272:64:64-i64:64-i128:128-f80:128-n8:16:32:64-S128"
target triple = "x86_64-pc-linux-gnu"

%struct._lv_obj_t = type { ptr, ptr, ptr, ptr, ptr, %struct.lv_area_t, i32, i16, i16 }
%struct.lv_area_t = type { i32, i32, i32, i32 }
%struct.lv_event_list_t = type { %struct._lv_array_t, i8 }
%struct._lv_array_t = type { ptr, i32, i32, i32, i8 }
%struct._lv_obj_spec_attr_t = type { ptr, ptr, %struct.lv_event_list_t, %struct.lv_point_t, i32, i32, i16, i16 }
%struct.lv_point_t = type { i32, i32 }

; Function Attrs: nounwind uwtable
define ptr @lv_obj_get_child_by_type(ptr noundef %0, i32 noundef %1, ptr noundef %2) #0 {
  %4 = alloca ptr, align 8
  %5 = alloca ptr, align 8
  %6 = alloca i32, align 4
  %7 = alloca ptr, align 8
  %8 = alloca i32, align 4
  %9 = alloca i32, align 4
  %10 = alloca i32, align 4
  store ptr %0, ptr %5, align 8, !tbaa !3
  store i32 %1, ptr %6, align 4, !tbaa !37
  store ptr %2, ptr %7, align 8, !tbaa !82
  br label %11

11:                                               ; preds = %3
  %12 = load ptr, ptr %5, align 8, !tbaa !3
  %13 = icmp ne ptr %12, null
  br i1 %13, label %18, label %14

14:                                               ; preds = %11
  br label %15

15:                                               ; preds = %14
  br label %16

16:                                               ; preds = %15
  br label %17

17:                                               ; preds = %16, %17
  br label %17

18:                                               ; preds = %11
  br label %19

19:                                               ; preds = %18
  %20 = load ptr, ptr %5, align 8, !tbaa !3
  %21 = getelementptr inbounds nuw %struct._lv_obj_t, ptr %20, i32 0, i32 2
  %22 = load ptr, ptr %21, align 8, !tbaa !43
  %23 = icmp eq ptr %22, null
  br i1 %23, label %24, label %25

24:                                               ; preds = %19
  store ptr null, ptr %4, align 8
  br label %121

25:                                               ; preds = %19
  call void @llvm.lifetime.start.p0(i64 4, ptr %8) #3
  call void @llvm.lifetime.start.p0(i64 4, ptr %9) #3
  %26 = load ptr, ptr %5, align 8, !tbaa !3
  %27 = getelementptr inbounds nuw %struct._lv_obj_t, ptr %26, i32 0, i32 2
  %28 = load ptr, ptr %27, align 8, !tbaa !43
  %29 = getelementptr inbounds nuw %struct._lv_obj_spec_attr_t, ptr %28, i32 0, i32 6
  %30 = load i16, ptr %29, align 8, !tbaa !64
  %31 = zext i16 %30 to i32
  store i32 %31, ptr %9, align 4, !tbaa !37
  %32 = load i32, ptr %6, align 4, !tbaa !37
  %33 = icmp sge i32 %32, 0
  br i1 %33, label %34, label %75

34:                                               ; preds = %25
  store i32 0, ptr %8, align 4, !tbaa !37
  br label %35

35:                                               ; preds = %71, %34
  %36 = load i32, ptr %8, align 4, !tbaa !37
  %37 = load i32, ptr %9, align 4, !tbaa !37
  %38 = icmp slt i32 %36, %37
  br i1 %38, label %39, label %74

39:                                               ; preds = %35
  %40 = load ptr, ptr %5, align 8, !tbaa !3
  %41 = getelementptr inbounds nuw %struct._lv_obj_t, ptr %40, i32 0, i32 2
  %42 = load ptr, ptr %41, align 8, !tbaa !43
  %43 = getelementptr inbounds nuw %struct._lv_obj_spec_attr_t, ptr %42, i32 0, i32 0
  %44 = load ptr, ptr %43, align 8, !tbaa !66
  %45 = load i32, ptr %8, align 4, !tbaa !37
  %46 = sext i32 %45 to i64
  %47 = getelementptr inbounds ptr, ptr %44, i64 %46
  %48 = load ptr, ptr %47, align 8, !tbaa !3
  %49 = getelementptr inbounds nuw %struct._lv_obj_t, ptr %48, i32 0, i32 0
  %50 = load ptr, ptr %49, align 8, !tbaa !83
  %51 = load ptr, ptr %7, align 8, !tbaa !82
  %52 = icmp eq ptr %50, %51
  br i1 %52, label %53, label %70

53:                                               ; preds = %39
  %54 = load i32, ptr %6, align 4, !tbaa !37
  %55 = icmp eq i32 %54, 0
  br i1 %55, label %56, label %66

56:                                               ; preds = %53
  %57 = load ptr, ptr %5, align 8, !tbaa !3
  %58 = getelementptr inbounds nuw %struct._lv_obj_t, ptr %57, i32 0, i32 2
  %59 = load ptr, ptr %58, align 8, !tbaa !43
  %60 = getelementptr inbounds nuw %struct._lv_obj_spec_attr_t, ptr %59, i32 0, i32 0
  %61 = load ptr, ptr %60, align 8, !tbaa !66
  %62 = load i32, ptr %8, align 4, !tbaa !37
  %63 = sext i32 %62 to i64
  %64 = getelementptr inbounds ptr, ptr %61, i64 %63
  %65 = load ptr, ptr %64, align 8, !tbaa !3
  store ptr %65, ptr %4, align 8
  store i32 1, ptr %10, align 4
  br label %120

66:                                               ; preds = %53
  %67 = load i32, ptr %6, align 4, !tbaa !37
  %68 = add nsw i32 %67, -1
  store i32 %68, ptr %6, align 4, !tbaa !37
  br label %69

69:                                               ; preds = %66
  br label %70

70:                                               ; preds = %69, %39
  br label %71

71:                                               ; preds = %70
  %72 = load i32, ptr %8, align 4, !tbaa !37
  %73 = add nsw i32 %72, 1
  store i32 %73, ptr %8, align 4, !tbaa !37
  br label %35, !llvm.loop !84

74:                                               ; preds = %35
  br label %119

75:                                               ; preds = %25
  %76 = load i32, ptr %6, align 4, !tbaa !37
  %77 = add nsw i32 %76, 1
  store i32 %77, ptr %6, align 4, !tbaa !37
  %78 = load i32, ptr %9, align 4, !tbaa !37
  %79 = sub nsw i32 %78, 1
  store i32 %79, ptr %8, align 4, !tbaa !37
  br label %80

80:                                               ; preds = %115, %75
  %81 = load i32, ptr %8, align 4, !tbaa !37
  %82 = icmp sge i32 %81, 0
  br i1 %82, label %83, label %118

83:                                               ; preds = %80
  %84 = load ptr, ptr %5, align 8, !tbaa !3
  %85 = getelementptr inbounds nuw %struct._lv_obj_t, ptr %84, i32 0, i32 2
  %86 = load ptr, ptr %85, align 8, !tbaa !43
  %87 = getelementptr inbounds nuw %struct._lv_obj_spec_attr_t, ptr %86, i32 0, i32 0
  %88 = load ptr, ptr %87, align 8, !tbaa !66
  %89 = load i32, ptr %8, align 4, !tbaa !37
  %90 = sext i32 %89 to i64
  %91 = getelementptr inbounds ptr, ptr %88, i64 %90
  %92 = load ptr, ptr %91, align 8, !tbaa !3
  %93 = getelementptr inbounds nuw %struct._lv_obj_t, ptr %92, i32 0, i32 0
  %94 = load ptr, ptr %93, align 8, !tbaa !83
  %95 = load ptr, ptr %7, align 8, !tbaa !82
  %96 = icmp eq ptr %94, %95
  br i1 %96, label %97, label %114

97:                                               ; preds = %83
  %98 = load i32, ptr %6, align 4, !tbaa !37
  %99 = icmp eq i32 %98, 0
  br i1 %99, label %100, label %110

100:                                              ; preds = %97
  %101 = load ptr, ptr %5, align 8, !tbaa !3
  %102 = getelementptr inbounds nuw %struct._lv_obj_t, ptr %101, i32 0, i32 2
  %103 = load ptr, ptr %102, align 8, !tbaa !43
  %104 = getelementptr inbounds nuw %struct._lv_obj_spec_attr_t, ptr %103, i32 0, i32 0
  %105 = load ptr, ptr %104, align 8, !tbaa !66
  %106 = load i32, ptr %8, align 4, !tbaa !37
  %107 = sext i32 %106 to i64
  %108 = getelementptr inbounds ptr, ptr %105, i64 %107
  %109 = load ptr, ptr %108, align 8, !tbaa !3
  store ptr %109, ptr %4, align 8
  store i32 1, ptr %10, align 4
  br label %120

110:                                              ; preds = %97
  %111 = load i32, ptr %6, align 4, !tbaa !37
  %112 = add nsw i32 %111, 1
  store i32 %112, ptr %6, align 4, !tbaa !37
  br label %113

113:                                              ; preds = %110
  br label %114

114:                                              ; preds = %113, %83
  br label %115

115:                                              ; preds = %114
  %116 = load i32, ptr %8, align 4, !tbaa !37
  %117 = add nsw i32 %116, -1
  store i32 %117, ptr %8, align 4, !tbaa !37
  br label %80, !llvm.loop !85

118:                                              ; preds = %80
  br label %119

119:                                              ; preds = %118, %74
  store ptr null, ptr %4, align 8
  store i32 1, ptr %10, align 4
  br label %120

120:                                              ; preds = %119, %100, %56
  call void @llvm.lifetime.end.p0(i64 4, ptr %9) #3
  call void @llvm.lifetime.end.p0(i64 4, ptr %8) #3
  br label %121

121:                                              ; preds = %120, %24
  %122 = load ptr, ptr %4, align 8
  ret ptr %122
}