; Function Attrs: nofree norecurse nosync nounwind memory(read, inaccessiblemem: none) uwtable
define noundef ptr @lv_obj_get_child_by_type(ptr noundef readonly captures(address_is_null) %0, i32 noundef %1, ptr noundef readnone captures(address) %2) local_unnamed_addr #4 {
  %.not = icmp eq ptr %0, null
  br i1 %.not, label %.preheader, label %4

.preheader:                                       ; preds = %3, %.preheader
  br label %.preheader

4:                                                ; preds = %3
  %5 = getelementptr inbounds nuw i8, ptr %0, i64 16
  %6 = load ptr, ptr %5, align 8, !tbaa !37
  %7 = icmp eq ptr %6, null
  br i1 %7, label %.loopexit, label %8

8:                                                ; preds = %4
  %9 = getelementptr inbounds nuw i8, ptr %6, i64 64
  %10 = load i16, ptr %9, align 8, !tbaa !38
  %11 = icmp sgt i32 %1, -1
  %.not48 = icmp eq i16 %10, 0
  br i1 %11, label %.preheader33, label %23

.preheader33:                                     ; preds = %8
  br i1 %.not48, label %.loopexit, label %.lr.ph43

.lr.ph43:                                         ; preds = %.preheader33
  %12 = load ptr, ptr %6, align 8, !tbaa !42
  %wide.trip.count = zext i16 %10 to i64
  br label %13

13:                                               ; preds = %.lr.ph43, %22
  %indvars.iv52 = phi i64 [ 0, %.lr.ph43 ], [ %indvars.iv.next53, %22 ]
  %.02741 = phi i32 [ %1, %.lr.ph43 ], [ %.128, %22 ]
  %14 = getelementptr inbounds nuw ptr, ptr %12, i64 %indvars.iv52
  %15 = load ptr, ptr %14, align 8, !tbaa !33
  %16 = load ptr, ptr %15, align 8, !tbaa !68
  %17 = icmp eq ptr %16, %2
  br i1 %17, label %18, label %22

18:                                               ; preds = %13
  %19 = icmp eq i32 %.02741, 0
  br i1 %19, label %.loopexit, label %20

20:                                               ; preds = %18
  %21 = add nsw i32 %.02741, -1
  br label %22

22:                                               ; preds = %13, %20
  %.128 = phi i32 [ %21, %20 ], [ %.02741, %13 ]
  %indvars.iv.next53 = add nuw nsw i64 %indvars.iv52, 1
  %exitcond.not = icmp eq i64 %indvars.iv.next53, %wide.trip.count
  br i1 %exitcond.not, label %.loopexit, label %13, !llvm.loop !69

23:                                               ; preds = %8
  br i1 %.not48, label %.loopexit, label %.lr.ph

.lr.ph:                                           ; preds = %23
  %24 = add nsw i32 %1, 1
  %25 = load ptr, ptr %6, align 8, !tbaa !42
  %26 = zext i16 %10 to i64
  br label %27

27:                                               ; preds = %.lr.ph, %36
  %indvars.iv = phi i64 [ %26, %.lr.ph ], [ %indvars.iv.next, %36 ]
  %.237 = phi i32 [ %24, %.lr.ph ], [ %.3, %36 ]
  %indvars.iv.next = add nsw i64 %indvars.iv, -1
  %28 = getelementptr inbounds nuw ptr, ptr %25, i64 %indvars.iv.next
  %29 = load ptr, ptr %28, align 8, !tbaa !33
  %30 = load ptr, ptr %29, align 8, !tbaa !68
  %31 = icmp eq ptr %30, %2
  br i1 %31, label %32, label %36

32:                                               ; preds = %27
  %33 = icmp eq i32 %.237, 0
  br i1 %33, label %.loopexit, label %34

34:                                               ; preds = %32
  %35 = add nsw i32 %.237, 1
  br label %36

36:                                               ; preds = %27, %34
  %.3 = phi i32 [ %35, %34 ], [ %.237, %27 ]
  %37 = icmp samesign ugt i64 %indvars.iv, 1
  br i1 %37, label %27, label %.loopexit, !llvm.loop !70

.loopexit:                                        ; preds = %36, %32, %22, %18, %23, %.preheader33, %4
  %.0 = phi ptr [ null, %4 ], [ null, %.preheader33 ], [ null, %23 ], [ null, %22 ], [ %15, %18 ], [ null, %36 ], [ %29, %32 ]
  ret ptr %.0
}